target datalayout = "e-m:e-p270:32:32-p271:32:32-p272:64:64-i64:64-i128:128-f80:128-n8:16:32:64-S128"
target triple = "x86_64-pc-linux-gnu"

; Function Attrs: mustprogress uwtable
define internal noundef i32 @_ZL8math_minP9lua_State(ptr noundef %0) #2 {
  %2 = alloca ptr, align 8
  %3 = alloca i32, align 4
  %4 = alloca double, align 8
  %5 = alloca i32, align 4
  %6 = alloca double, align 8
  store ptr %0, ptr %2, align 8, !tbaa !20
  call void @llvm.lifetime.start.p0(i64 4, ptr %3) #11
  %7 = load ptr, ptr %2, align 8, !tbaa !20
  %8 = call noundef i32 @_Z10lua_gettopP9lua_State(ptr noundef %7)
  store i32 %8, ptr %3, align 4, !tbaa !39
  call void @llvm.lifetime.start.p0(i64 8, ptr %4) #11
  %9 = load ptr, ptr %2, align 8, !tbaa !20
  %10 = call noundef double @_Z16luaL_checknumberP9lua_Statei(ptr noundef %9, i32 noundef 1)
  store double %10, ptr %4, align 8, !tbaa !37
  call void @llvm.lifetime.start.p0(i64 4, ptr %5) #11
  store i32 2, ptr %5, align 4, !tbaa !39
  br label %11

11:                                               ; preds = %25, %1
  %12 = load i32, ptr %5, align 4, !tbaa !39
  %13 = load i32, ptr %3, align 4, !tbaa !39
  %14 = icmp sle i32 %12, %13
  br i1 %14, label %15, label %28

15:                                               ; preds = %11
  call void @llvm.lifetime.start.p0(i64 8, ptr %6) #11
  %16 = load ptr, ptr %2, align 8, !tbaa !20
  %17 = load i32, ptr %5, align 4, !tbaa !39
  %18 = call noundef double @_Z16luaL_checknumberP9lua_Statei(ptr noundef %16, i32 noundef %17)
  store double %18, ptr %6, align 8, !tbaa !37
  %19 = load double, ptr %6, align 8, !tbaa !37
  %20 = load double, ptr %4, align 8, !tbaa !37
  %21 = fcmp olt double %19, %20
  br i1 %21, label %22, label %24

22:                                               ; preds = %15
  %23 = load double, ptr %6, align 8, !tbaa !37
  store double %23, ptr %4, align 8, !tbaa !37
  br label %24

24:                                               ; preds = %22, %15
  call void @llvm.lifetime.end.p0(i64 8, ptr %6) #11
  br label %25

25:                                               ; preds = %24
  %26 = load i32, ptr %5, align 4, !tbaa !39
  %27 = add nsw i32 %26, 1
  store i32 %27, ptr %5, align 4, !tbaa !39
  br label %11, !llvm.loop !42

28:                                               ; preds = %11
  %29 = load ptr, ptr %2, align 8, !tbaa !20
  %30 = load double, ptr %4, align 8, !tbaa !37
  call void @_Z14lua_pushnumberP9lua_Stated(ptr noundef %29, double noundef %30)
  call void @llvm.lifetime.end.p0(i64 4, ptr %5) #11
  call void @llvm.lifetime.end.p0(i64 8, ptr %4) #11
  call void @llvm.lifetime.end.p0(i64 4, ptr %3) #11
  ret i32 1
}