; Function Attrs: mustprogress uwtable
define internal noundef i32 @_ZL8math_minP9lua_State(ptr noundef %0) #0 {
  %2 = tail call noundef i32 @_Z10lua_gettopP9lua_State(ptr noundef %0)
  %3 = tail call noundef double @_Z16luaL_checknumberP9lua_Statei(ptr noundef %0, i32 noundef 1)
  %.not13 = icmp slt i32 %2, 2
  br i1 %.not13, label %._crit_edge, label %.lr.ph

.lr.ph:                                           ; preds = %1, %.lr.ph
  %.015 = phi double [ %.1, %.lr.ph ], [ %3, %1 ]
  %.01114 = phi i32 [ %6, %.lr.ph ], [ 2, %1 ]
  %4 = tail call noundef double @_Z16luaL_checknumberP9lua_Statei(ptr noundef %0, i32 noundef %.01114)
  %5 = fcmp olt double %4, %.015
  %.1 = select i1 %5, double %4, double %.015
  %6 = add nuw i32 %.01114, 1
  %exitcond.not = icmp eq i32 %.01114, %2
  br i1 %exitcond.not, label %._crit_edge, label %.lr.ph, !llvm.loop !30

._crit_edge:                                      ; preds = %.lr.ph, %1
  %.0.lcssa = phi double [ %3, %1 ], [ %.1, %.lr.ph ]
  tail call void @_Z14lua_pushnumberP9lua_Stated(ptr noundef %0, double noundef %.0.lcssa)
  ret i32 1
}